target datalayout = "e-m:e-p270:32:32-p271:32:32-p272:64:64-i64:64-i128:128-f80:128-n8:16:32:64-S128"
target triple = "x86_64-unknown-linux-gnu"

%"struct.std::_Rb_tree_header" = type { %"struct.std::_Rb_tree_node_base", i64 }
%"struct.std::_Rb_tree_node_base" = type { i32, ptr, ptr, ptr }
%"struct.std::__detail::_Hash_node_base" = type { ptr }
%"struct.std::__detail::_Prime_rehash_policy" = type { float, i64 }
%"class.std::__cxx11::basic_string" = type { %"struct.std::__cxx11::basic_string<char>::_Alloc_hider", i64, %union.anon }
%"struct.std::__cxx11::basic_string<char>::_Alloc_hider" = type { ptr }
%union.anon = type { i64, [8 x i8] }
%struct.llama_buffer = type <{ ptr, i64, i8, [7 x i8] }>
%struct.llama_model = type { i32, i32, i32, %"class.std::__cxx11::basic_string", %struct.llama_hparams, %struct.llama_vocab, ptr, ptr, ptr, ptr, ptr, ptr, ptr, %"class.std::vector.188", i32, %"class.std::unordered_map.193", ptr, %struct.llama_buffer, %"class.std::unique_ptr", %struct.llama_mlock, %struct.llama_mlock, %"class.std::vector.209", i64, i64 }
%struct.llama_hparams = type { i8, i32, i32, i32, i32, i32, i32, i32, i32, i32, i32, float, float, float, float, i32, i8, float, float }
%struct.llama_vocab = type { i32, %"class.std::unordered_map.155", %"class.std::vector.175", %"class.std::unordered_map.155", %"class.std::map.180", i32, i32, i32, i32, i32, i32, i32, i32, i32, i32, i32, i32 }
%"class.std::vector.175" = type { %"struct.std::_Vector_base.176" }
%"struct.std::_Vector_base.176" = type { %"struct.std::_Vector_base<llama_vocab::token_data, std::allocator<llama_vocab::token_data>>::_Vector_impl" }
%"struct.std::_Vector_base<llama_vocab::token_data, std::allocator<llama_vocab::token_data>>::_Vector_impl" = type { %"struct.std::_Vector_base<llama_vocab::token_data, std::allocator<llama_vocab::token_data>>::_Vector_impl_data" }
%"struct.std::_Vector_base<llama_vocab::token_data, std::allocator<llama_vocab::token_data>>::_Vector_impl_data" = type { ptr, ptr, ptr }
%"class.std::unordered_map.155" = type { %"class.std::_Hashtable.156" }
%"class.std::_Hashtable.156" = type { ptr, i64, %"struct.std::__detail::_Hash_node_base", i64, %"struct.std::__detail::_Prime_rehash_policy", ptr }
%"class.std::map.180" = type { %"class.std::_Rb_tree.181" }
%"class.std::_Rb_tree.181" = type { %"struct.std::_Rb_tree<std::pair<std::__cxx11::basic_string<char>, std::__cxx11::basic_string<char>>, std::pair<const std::pair<std::__cxx11::basic_string<char>, std::__cxx11::basic_string<char>>, int>, std::_Select1st<std::pair<const std::pair<std::__cxx11::basic_string<char>, std::__cxx11::basic_string<char>>, int>>, std::less<std::pair<std::__cxx11::basic_string<char>, std::__cxx11::basic_string<char>>>>::_Rb_tree_impl" }
%"struct.std::_Rb_tree<std::pair<std::__cxx11::basic_string<char>, std::__cxx11::basic_string<char>>, std::pair<const std::pair<std::__cxx11::basic_string<char>, std::__cxx11::basic_string<char>>, int>, std::_Select1st<std::pair<const std::pair<std::__cxx11::basic_string<char>, std::__cxx11::basic_string<char>>, int>>, std::less<std::pair<std::__cxx11::basic_string<char>, std::__cxx11::basic_string<char>>>>::_Rb_tree_impl" = type { %"struct.std::_Rb_tree_key_compare.185", %"struct.std::_Rb_tree_header" }
%"struct.std::_Rb_tree_key_compare.185" = type { %"struct.std::less.186" }
%"struct.std::less.186" = type { i8 }
%"class.std::vector.188" = type { %"struct.std::_Vector_base.189" }
%"struct.std::_Vector_base.189" = type { %"struct.std::_Vector_base<llama_layer, std::allocator<llama_layer>>::_Vector_impl" }
%"struct.std::_Vector_base<llama_layer, std::allocator<llama_layer>>::_Vector_impl" = type { %"struct.std::_Vector_base<llama_layer, std::allocator<llama_layer>>::_Vector_impl_data" }
%"struct.std::_Vector_base<llama_layer, std::allocator<llama_layer>>::_Vector_impl_data" = type { ptr, ptr, ptr }
%"class.std::unordered_map.193" = type { %"class.std::_Hashtable.194" }
%"class.std::_Hashtable.194" = type { ptr, i64, %"struct.std::__detail::_Hash_node_base", i64, %"struct.std::__detail::_Prime_rehash_policy", ptr }
%"class.std::unique_ptr" = type { %"struct.std::__uniq_ptr_data" }
%"struct.std::__uniq_ptr_data" = type { %"class.std::__uniq_ptr_impl" }
%"class.std::__uniq_ptr_impl" = type { %"class.std::tuple" }
%"class.std::tuple" = type { %"struct.std::_Tuple_impl" }
%"struct.std::_Tuple_impl" = type { %"struct.std::_Head_base.208" }
%"struct.std::_Head_base.208" = type { ptr }
%struct.llama_mlock = type <{ ptr, i64, i8, [7 x i8] }>
%"class.std::vector.209" = type { %"struct.std::_Vector_base.210" }
%"struct.std::_Vector_base.210" = type { %"struct.std::_Vector_base<std::pair<std::__cxx11::basic_string<char>, ggml_tensor *>, std::allocator<std::pair<std::__cxx11::basic_string<char>, ggml_tensor *>>>::_Vector_impl" }
%"struct.std::_Vector_base<std::pair<std::__cxx11::basic_string<char>, ggml_tensor *>, std::allocator<std::pair<std::__cxx11::basic_string<char>, ggml_tensor *>>>::_Vector_impl" = type { %"struct.std::_Vector_base<std::pair<std::__cxx11::basic_string<char>, ggml_tensor *>, std::allocator<std::pair<std::__cxx11::basic_string<char>, ggml_tensor *>>>::_Vector_impl_data" }
%"struct.std::_Vector_base<std::pair<std::__cxx11::basic_string<char>, ggml_tensor *>, std::allocator<std::pair<std::__cxx11::basic_string<char>, ggml_tensor *>>>::_Vector_impl_data" = type { ptr, ptr, ptr }
%"class.__gnu_cxx::__normal_iterator.260" = type { ptr }
%"struct.std::pair.261" = type { %"class.std::__cxx11::basic_string", ptr }

; Function Attrs: mustprogress nounwind uwtable
define linkonce_odr noundef nonnull align 8 dereferenceable(8) ptr @_ZNK9__gnu_cxx17__normal_iteratorIPKSt4pairINSt7__cxx1112basic_stringIcSt11char_traitsIcESaIcEEEP11ggml_tensorESt6vectorISA_SaISA_EEE4baseEv(ptr noundef nonnull align 8 dereferenceable(8) %this) #1 comdat align 2 {
entry:
  %this.addr = alloca ptr, align 8
  store ptr %this, ptr %this.addr, align 8
  %this1 = load ptr, ptr %this.addr, align 8
  %_M_current = getelementptr inbounds %"class.__gnu_cxx::__normal_iterator.260", ptr %this1, i32 0, i32 0
  ret ptr %_M_current
}

; Function Attrs: mustprogress nounwind uwtable
define linkonce_odr void @_ZN9__gnu_cxx17__normal_iteratorIPKSt4pairINSt7__cxx1112basic_stringIcSt11char_traitsIcESaIcEEEP11ggml_tensorESt6vectorISA_SaISA_EEEC2ERKSC_(ptr noundef nonnull align 8 dereferenceable(8) %this, ptr noundef nonnull align 8 dereferenceable(8) %__i) unnamed_addr #1 comdat align 2 {
entry:
  %this.addr = alloca ptr, align 8
  %__i.addr = alloca ptr, align 8
  store ptr %this, ptr %this.addr, align 8
  store ptr %__i, ptr %__i.addr, align 8
  %this1 = load ptr, ptr %this.addr, align 8
  %_M_current = getelementptr inbounds %"class.__gnu_cxx::__normal_iterator.260", ptr %this1, i32 0, i32 0
  %0 = load ptr, ptr %__i.addr, align 8
  %1 = load ptr, ptr %0, align 8
  store ptr %1, ptr %_M_current, align 8
  ret void
}

; Function Attrs: mustprogress nounwind uwtable
define linkonce_odr noundef nonnull align 8 dereferenceable(8) ptr @_ZN9__gnu_cxx17__normal_iteratorIPKSt4pairINSt7__cxx1112basic_stringIcSt11char_traitsIcESaIcEEEP11ggml_tensorESt6vectorISA_SaISA_EEEppEv(ptr noundef nonnull align 8 dereferenceable(8) %this) #1 comdat align 2 {
entry:
  %this.addr = alloca ptr, align 8
  store ptr %this, ptr %this.addr, align 8
  %this1 = load ptr, ptr %this.addr, align 8
  %_M_current = getelementptr inbounds %"class.__gnu_cxx::__normal_iterator.260", ptr %this1, i32 0, i32 0
  %0 = load ptr, ptr %_M_current, align 8
  %incdec.ptr = getelementptr inbounds %"struct.std::pair.261", ptr %0, i32 1
  store ptr %incdec.ptr, ptr %_M_current, align 8
  ret ptr %this1
}

; Function Attrs: mustprogress nounwind uwtable
define linkonce_odr noundef nonnull align 8 dereferenceable(40) ptr @_ZNK9__gnu_cxx17__normal_iteratorIPKSt4pairINSt7__cxx1112basic_stringIcSt11char_traitsIcESaIcEEEP11ggml_tensorESt6vectorISA_SaISA_EEEdeEv(ptr noundef nonnull align 8 dereferenceable(8) %this) #1 comdat align 2 {
entry:
  %this.addr = alloca ptr, align 8
  store ptr %this, ptr %this.addr, align 8
  %this1 = load ptr, ptr %this.addr, align 8
  %_M_current = getelementptr inbounds %"class.__gnu_cxx::__normal_iterator.260", ptr %this1, i32 0, i32 0
  %0 = load ptr, ptr %_M_current, align 8
  ret ptr %0
}

; Function Attrs: mustprogress nounwind uwtable
define linkonce_odr noundef zeroext i1 @_ZN9__gnu_cxxneIPKSt4pairINSt7__cxx1112basic_stringIcSt11char_traitsIcESaIcEEEP11ggml_tensorESt6vectorISA_SaISA_EEEEbRKNS_17__normal_iteratorIT_T0_EESL_(ptr noundef nonnull align 8 dereferenceable(8) %__lhs, ptr noundef nonnull align 8 dereferenceable(8) %__rhs) #1 comdat {
entry:
  %__lhs.addr = alloca ptr, align 8
  %__rhs.addr = alloca ptr, align 8
  store ptr %__lhs, ptr %__lhs.addr, align 8
  store ptr %__rhs, ptr %__rhs.addr, align 8
  %0 = load ptr, ptr %__lhs.addr, align 8
  %call = call noundef nonnull align 8 dereferenceable(8) ptr @_ZNK9__gnu_cxx17__normal_iteratorIPKSt4pairINSt7__cxx1112basic_stringIcSt11char_traitsIcESaIcEEEP11ggml_tensorESt6vectorISA_SaISA_EEE4baseEv(ptr noundef nonnull align 8 dereferenceable(8) %0) #3
  %1 = load ptr, ptr %call, align 8
  %2 = load ptr, ptr %__rhs.addr, align 8
  %call1 = call noundef nonnull align 8 dereferenceable(8) ptr @_ZNK9__gnu_cxx17__normal_iteratorIPKSt4pairINSt7__cxx1112basic_stringIcSt11char_traitsIcESaIcEEEP11ggml_tensorESt6vectorISA_SaISA_EEE4baseEv(ptr noundef nonnull align 8 dereferenceable(8) %2) #3
  %3 = load ptr, ptr %call1, align 8
  %cmp = icmp ne ptr %1, %3
  ret i1 %cmp
}

; Function Attrs: mustprogress nounwind uwtable
define linkonce_odr ptr @_ZNKSt6vectorISt4pairINSt7__cxx1112basic_stringIcSt11char_traitsIcESaIcEEEP11ggml_tensorESaIS9_EE3endEv(ptr noundef nonnull align 8 dereferenceable(24) %this) #1 comdat align 2 {
entry:
  %retval = alloca %"class.__gnu_cxx::__normal_iterator.260", align 8
  %this.addr = alloca ptr, align 8
  store ptr %this, ptr %this.addr, align 8
  %this1 = load ptr, ptr %this.addr, align 8
  %_M_impl = getelementptr inbounds %"struct.std::_Vector_base.210", ptr %this1, i32 0, i32 0
  %_M_finish = getelementptr inbounds %"struct.std::_Vector_base<std::pair<std::__cxx11::basic_string<char>, ggml_tensor *>, std::allocator<std::pair<std::__cxx11::basic_string<char>, ggml_tensor *>>>::_Vector_impl_data", ptr %_M_impl, i32 0, i32 1
  call void @_ZN9__gnu_cxx17__normal_iteratorIPKSt4pairINSt7__cxx1112basic_stringIcSt11char_traitsIcESaIcEEEP11ggml_tensorESt6vectorISA_SaISA_EEEC2ERKSC_(ptr noundef nonnull align 8 dereferenceable(8) %retval, ptr noundef nonnull align 8 dereferenceable(8) %_M_finish) #3
  %coerce.dive = getelementptr inbounds %"class.__gnu_cxx::__normal_iterator.260", ptr %retval, i32 0, i32 0
  %0 = load ptr, ptr %coerce.dive, align 8
  ret ptr %0
}

; Function Attrs: mustprogress nounwind uwtable
define linkonce_odr ptr @_ZNKSt6vectorISt4pairINSt7__cxx1112basic_stringIcSt11char_traitsIcESaIcEEEP11ggml_tensorESaIS9_EE5beginEv(ptr noundef nonnull align 8 dereferenceable(24) %this) #1 comdat align 2 {
entry:
  %retval = alloca %"class.__gnu_cxx::__normal_iterator.260", align 8
  %this.addr = alloca ptr, align 8
  store ptr %this, ptr %this.addr, align 8
  %this1 = load ptr, ptr %this.addr, align 8
  %_M_impl = getelementptr inbounds %"struct.std::_Vector_base.210", ptr %this1, i32 0, i32 0
  %_M_start = getelementptr inbounds %"struct.std::_Vector_base<std::pair<std::__cxx11::basic_string<char>, ggml_tensor *>, std::allocator<std::pair<std::__cxx11::basic_string<char>, ggml_tensor *>>>::_Vector_impl_data", ptr %_M_impl, i32 0, i32 0
  call void @_ZN9__gnu_cxx17__normal_iteratorIPKSt4pairINSt7__cxx1112basic_stringIcSt11char_traitsIcESaIcEEEP11ggml_tensorESt6vectorISA_SaISA_EEEC2ERKSC_(ptr noundef nonnull align 8 dereferenceable(8) %retval, ptr noundef nonnull align 8 dereferenceable(8) %_M_start) #3
  %coerce.dive = getelementptr inbounds %"class.__gnu_cxx::__normal_iterator.260", ptr %retval, i32 0, i32 0
  %0 = load ptr, ptr %coerce.dive, align 8
  ret ptr %0
}

; Function Attrs: mustprogress uwtable
define i64 @llama_model_n_params(ptr noundef %model) #2 {
entry:
  %model.addr = alloca ptr, align 8
  %nparams = alloca i64, align 8
  %__range1 = alloca ptr, align 8
  %__begin1 = alloca %"class.__gnu_cxx::__normal_iterator.260", align 8
  %__end1 = alloca %"class.__gnu_cxx::__normal_iterator.260", align 8
  %it = alloca ptr, align 8
  store ptr %model, ptr %model.addr, align 8
  store i64 0, ptr %nparams, align 8
  %0 = load ptr, ptr %model.addr, align 8
  %tensors_by_name = getelementptr inbounds %struct.llama_model, ptr %0, i32 0, i32 21
  store ptr %tensors_by_name, ptr %__range1, align 8
  %1 = load ptr, ptr %__range1, align 8
  %call = call ptr @_ZNKSt6vectorISt4pairINSt7__cxx1112basic_stringIcSt11char_traitsIcESaIcEEEP11ggml_tensorESaIS9_EE5beginEv(ptr noundef nonnull align 8 dereferenceable(24) %1) #3
  %coerce.dive = getelementptr inbounds %"class.__gnu_cxx::__normal_iterator.260", ptr %__begin1, i32 0, i32 0
  store ptr %call, ptr %coerce.dive, align 8
  %2 = load ptr, ptr %__range1, align 8
  %call1 = call ptr @_ZNKSt6vectorISt4pairINSt7__cxx1112basic_stringIcSt11char_traitsIcESaIcEEEP11ggml_tensorESaIS9_EE3endEv(ptr noundef nonnull align 8 dereferenceable(24) %2) #3
  %coerce.dive2 = getelementptr inbounds %"class.__gnu_cxx::__normal_iterator.260", ptr %__end1, i32 0, i32 0
  store ptr %call1, ptr %coerce.dive2, align 8
  br label %for.cond

for.cond:                                         ; preds = %for.inc, %entry
  %call3 = call noundef zeroext i1 @_ZN9__gnu_cxxneIPKSt4pairINSt7__cxx1112basic_stringIcSt11char_traitsIcESaIcEEEP11ggml_tensorESt6vectorISA_SaISA_EEEEbRKNS_17__normal_iteratorIT_T0_EESL_(ptr noundef nonnull align 8 dereferenceable(8) %__begin1, ptr noundef nonnull align 8 dereferenceable(8) %__end1) #3
  br i1 %call3, label %for.body, label %for.end

for.body:                                         ; preds = %for.cond
  %call4 = call noundef nonnull align 8 dereferenceable(40) ptr @_ZNK9__gnu_cxx17__normal_iteratorIPKSt4pairINSt7__cxx1112basic_stringIcSt11char_traitsIcESaIcEEEP11ggml_tensorESt6vectorISA_SaISA_EEEdeEv(ptr noundef nonnull align 8 dereferenceable(8) %__begin1) #3
  store ptr %call4, ptr %it, align 8
  %3 = load ptr, ptr %it, align 8
  %second = getelementptr inbounds %"struct.std::pair.261", ptr %3, i32 0, i32 1
  %4 = load ptr, ptr %second, align 8
  %call5 = call i64 @ggml_nelements(ptr noundef %4)
  %5 = load i64, ptr %nparams, align 8
  %add = add i64 %5, %call5
  store i64 %add, ptr %nparams, align 8
  br label %for.inc

for.inc:                                          ; preds = %for.body
  %call6 = call noundef nonnull align 8 dereferenceable(8) ptr @_ZN9__gnu_cxx17__normal_iteratorIPKSt4pairINSt7__cxx1112basic_stringIcSt11char_traitsIcESaIcEEEP11ggml_tensorESt6vectorISA_SaISA_EEEppEv(ptr noundef nonnull align 8 dereferenceable(8) %__begin1) #3
  br label %for.cond

for.end:                                          ; preds = %for.cond
  %6 = load i64, ptr %nparams, align 8
  ret i64 %6
}