; Function Attrs: mustprogress uwtable
define i64 @llama_model_n_params(ptr nocapture noundef readonly %model) local_unnamed_addr #2 {
entry:
  %tensors_by_name = getelementptr inbounds i8, ptr %model, i64 600
  %0 = load ptr, ptr %tensors_by_name, align 8
  %_M_finish.i = getelementptr inbounds i8, ptr %model, i64 608
  %1 = load ptr, ptr %_M_finish.i, align 8
  %cmp.i.not5 = icmp eq ptr %0, %1
  br i1 %cmp.i.not5, label %for.end, label %for.body

for.body:                                         ; preds = %entry, %for.body
  %nparams.07 = phi i64 [ %add, %for.body ], [ 0, %entry ]
  %__begin1.sroa.0.06 = phi ptr [ %incdec.ptr.i, %for.body ], [ %0, %entry ]
  %second = getelementptr inbounds i8, ptr %__begin1.sroa.0.06, i64 32
  %2 = load ptr, ptr %second, align 8
  %call5 = tail call i64 @ggml_nelements(ptr noundef %2)
  %add = add i64 %call5, %nparams.07
  %incdec.ptr.i = getelementptr inbounds i8, ptr %__begin1.sroa.0.06, i64 40
  %cmp.i.not = icmp eq ptr %incdec.ptr.i, %1
  br i1 %cmp.i.not, label %for.end, label %for.body

for.end:                                          ; preds = %for.body, %entry
  %nparams.0.lcssa = phi i64 [ 0, %entry ], [ %add, %for.body ]
  ret i64 %nparams.0.lcssa
}